target datalayout = "e-m:e-p270:32:32-p271:32:32-p272:64:64-i64:64-i128:128-f80:128-n8:16:32:64-S128"
target triple = "x86_64-pc-linux-gnu"

%"class.cv::bioinspired::BasicRetinaFilter" = type { %"class.cv::bioinspired::TemplateBuffer", %"class.std::valarray", i32, i32, %"class.std::valarray", %"class.std::valarray", %"class.std::valarray", float, float, float, float, float, float, float, float }
%"class.cv::bioinspired::TemplateBuffer" = type { ptr, %"class.std::valarray", i64, i64, i64, i64, i64 }
%"class.std::valarray" = type { i64, ptr }
%"class.cv::Range" = type { i32, i32 }
%"class.cv::ParallelLoopBody" = type { ptr }
%"class.cv::bioinspired::BasicRetinaFilter::Parallel_verticalCausalFilter_Irregular" = type { %"class.cv::ParallelLoopBody", ptr, ptr, i32, i32 }

@_ZTVN2cv16ParallelLoopBodyE = available_externally unnamed_addr constant { [5 x ptr] } { [5 x ptr] [ptr null, ptr @_ZTIN2cv16ParallelLoopBodyE, ptr @_ZN2cv16ParallelLoopBodyD1Ev, ptr @_ZN2cv16ParallelLoopBodyD0Ev, ptr @__cxa_pure_virtual] }, align 8

; Function Attrs: inlinehint mustprogress nounwind uwtable
define linkonce_odr hidden void @_ZN2cv16ParallelLoopBodyC2Ev(ptr noundef nonnull align 8 dereferenceable(8) %0) unnamed_addr #6 comdat align 2 {
  %2 = alloca ptr, align 8
  store ptr %0, ptr %2, align 8, !tbaa !144
  %3 = load ptr, ptr %2, align 8
  store ptr getelementptr inbounds inrange(-16, 24) ({ [5 x ptr] }, ptr @_ZTVN2cv16ParallelLoopBodyE, i32 0, i32 0, i32 2), ptr %3, align 8, !tbaa !27
  ret void
}

; Function Attrs: mustprogress nounwind uwtable
define linkonce_odr hidden void @_ZN2cv11bioinspired17BasicRetinaFilter39Parallel_verticalCausalFilter_IrregularC2EPfPKfjj(ptr noundef nonnull align 8 dereferenceable(32) %0, ptr noundef %1, ptr noundef %2, i32 noundef %3, i32 noundef %4) unnamed_addr #7 comdat align 2 {
  %6 = alloca ptr, align 8
  %7 = alloca ptr, align 8
  %8 = alloca ptr, align 8
  %9 = alloca i32, align 4
  %10 = alloca i32, align 4
  store ptr %0, ptr %6, align 8, !tbaa !136
  store ptr %1, ptr %7, align 8, !tbaa !49
  store ptr %2, ptr %8, align 8, !tbaa !49
  store i32 %3, ptr %9, align 4, !tbaa !8
  store i32 %4, ptr %10, align 4, !tbaa !8
  %11 = load ptr, ptr %6, align 8
  call void @_ZN2cv16ParallelLoopBodyC2Ev(ptr noundef nonnull align 8 dereferenceable(8) %11) #3
  store ptr getelementptr inbounds inrange(-16, 24) ({ [5 x ptr] }, ptr @_ZTVN2cv11bioinspired17BasicRetinaFilter39Parallel_verticalCausalFilter_IrregularE, i32 0, i32 0, i32 2), ptr %11, align 8, !tbaa !27
  %12 = getelementptr inbounds nuw %"class.cv::bioinspired::BasicRetinaFilter::Parallel_verticalCausalFilter_Irregular", ptr %11, i32 0, i32 1
  %13 = load ptr, ptr %7, align 8, !tbaa !49
  store ptr %13, ptr %12, align 8, !tbaa !138
  %14 = getelementptr inbounds nuw %"class.cv::bioinspired::BasicRetinaFilter::Parallel_verticalCausalFilter_Irregular", ptr %11, i32 0, i32 2
  %15 = load ptr, ptr %8, align 8, !tbaa !49
  store ptr %15, ptr %14, align 8, !tbaa !140
  %16 = getelementptr inbounds nuw %"class.cv::bioinspired::BasicRetinaFilter::Parallel_verticalCausalFilter_Irregular", ptr %11, i32 0, i32 3
  %17 = load i32, ptr %9, align 4, !tbaa !8
  store i32 %17, ptr %16, align 8, !tbaa !141
  %18 = getelementptr inbounds nuw %"class.cv::bioinspired::BasicRetinaFilter::Parallel_verticalCausalFilter_Irregular", ptr %11, i32 0, i32 4
  %19 = load i32, ptr %10, align 4, !tbaa !8
  store i32 %19, ptr %18, align 4, !tbaa !142
  ret void
}

; Function Attrs: inlinehint mustprogress nounwind uwtable
define linkonce_odr hidden noundef i32 @_ZN2cv11bioinspired14TemplateBufferIfE12getNBcolumnsEv(ptr noundef nonnull align 8 dereferenceable(64) %0) #6 comdat align 2 {
  %2 = alloca ptr, align 8
  store ptr %0, ptr %2, align 8, !tbaa !23
  %3 = load ptr, ptr %2, align 8
  %4 = getelementptr inbounds nuw %"class.cv::bioinspired::TemplateBuffer", ptr %3, i32 0, i32 3
  %5 = load i64, ptr %4, align 8, !tbaa !30
  %6 = trunc i64 %5 to i32
  ret i32 %6
}

; Function Attrs: inlinehint mustprogress nounwind uwtable
define linkonce_odr hidden noundef i32 @_ZN2cv11bioinspired14TemplateBufferIfE9getNBrowsEv(ptr noundef nonnull align 8 dereferenceable(64) %0) #6 comdat align 2 {
  %2 = alloca ptr, align 8
  store ptr %0, ptr %2, align 8, !tbaa !23
  %3 = load ptr, ptr %2, align 8
  %4 = getelementptr inbounds nuw %"class.cv::bioinspired::TemplateBuffer", ptr %3, i32 0, i32 2
  %5 = load i64, ptr %4, align 8, !tbaa !29
  %6 = trunc i64 %5 to i32
  ret i32 %6
}

; Function Attrs: inlinehint mustprogress nounwind uwtable
define linkonce_odr hidden void @_ZN2cv5RangeC2Eii(ptr noundef nonnull align 4 dereferenceable(8) %0, i32 noundef %1, i32 noundef %2) unnamed_addr #6 comdat align 2 {
  %4 = alloca ptr, align 8
  %5 = alloca i32, align 4
  %6 = alloca i32, align 4
  store ptr %0, ptr %4, align 8, !tbaa !56
  store i32 %1, ptr %5, align 4, !tbaa !8
  store i32 %2, ptr %6, align 4, !tbaa !8
  %7 = load ptr, ptr %4, align 8
  %8 = getelementptr inbounds nuw %"class.cv::Range", ptr %7, i32 0, i32 0
  %9 = load i32, ptr %5, align 4, !tbaa !8
  store i32 %9, ptr %8, align 4, !tbaa !58
  %10 = getelementptr inbounds nuw %"class.cv::Range", ptr %7, i32 0, i32 1
  %11 = load i32, ptr %6, align 4, !tbaa !8
  store i32 %11, ptr %10, align 4, !tbaa !60
  ret void
}

; Function Attrs: mustprogress uwtable
define hidden void @_ZN2cv11bioinspired17BasicRetinaFilter31_verticalCausalFilter_IrregularEPfjjPKf(ptr noundef nonnull align 8 dereferenceable(168) %0, ptr noundef %1, i32 noundef %2, i32 noundef %3, ptr noundef %4) #4 align 2 personality ptr @__gxx_personality_v0 {
  %6 = alloca ptr, align 8
  %7 = alloca ptr, align 8
  %8 = alloca i32, align 4
  %9 = alloca i32, align 4
  %10 = alloca ptr, align 8
  %11 = alloca %"class.cv::Range", align 4
  %12 = alloca %"class.cv::bioinspired::BasicRetinaFilter::Parallel_verticalCausalFilter_Irregular", align 8
  %13 = alloca ptr, align 8
  %14 = alloca i32, align 4
  store ptr %0, ptr %6, align 8, !tbaa !3
  store ptr %1, ptr %7, align 8, !tbaa !49
  store i32 %2, ptr %8, align 4, !tbaa !8
  store i32 %3, ptr %9, align 4, !tbaa !8
  store ptr %4, ptr %10, align 8, !tbaa !49
  %15 = load ptr, ptr %6, align 8
  call void @llvm.lifetime.start.p0(i64 8, ptr %11) #3
  %16 = load i32, ptr %8, align 4, !tbaa !8
  %17 = load i32, ptr %9, align 4, !tbaa !8
  call void @_ZN2cv5RangeC2Eii(ptr noundef nonnull align 4 dereferenceable(8) %11, i32 noundef %16, i32 noundef %17)
  call void @llvm.lifetime.start.p0(i64 32, ptr %12) #3
  %18 = load ptr, ptr %7, align 8, !tbaa !49
  %19 = load ptr, ptr %10, align 8, !tbaa !49
  %20 = getelementptr inbounds nuw %"class.cv::bioinspired::BasicRetinaFilter", ptr %15, i32 0, i32 0
  %21 = call noundef i32 @_ZN2cv11bioinspired14TemplateBufferIfE9getNBrowsEv(ptr noundef nonnull align 8 dereferenceable(64) %20)
  %22 = getelementptr inbounds nuw %"class.cv::bioinspired::BasicRetinaFilter", ptr %15, i32 0, i32 0
  %23 = call noundef i32 @_ZN2cv11bioinspired14TemplateBufferIfE12getNBcolumnsEv(ptr noundef nonnull align 8 dereferenceable(64) %22)
  call void @_ZN2cv11bioinspired17BasicRetinaFilter39Parallel_verticalCausalFilter_IrregularC2EPfPKfjj(ptr noundef nonnull align 8 dereferenceable(32) %12, ptr noundef %18, ptr noundef %19, i32 noundef %21, i32 noundef %23)
  invoke void @_ZN2cv13parallel_for_ERKNS_5RangeERKNS_16ParallelLoopBodyEd(ptr noundef nonnull align 4 dereferenceable(8) %11, ptr noundef nonnull align 8 dereferenceable(8) %12, double noundef -1.000000e+00)
          to label %24 unwind label %25

24:                                               ; preds = %5
  call void @_ZN2cv16ParallelLoopBodyD2Ev(ptr noundef nonnull align 8 dereferenceable(32) %12) #3
  call void @llvm.lifetime.end.p0(i64 32, ptr %12) #3
  call void @llvm.lifetime.end.p0(i64 8, ptr %11) #3
  ret void

25:                                               ; preds = %5
  %26 = landingpad { ptr, i32 }
          cleanup
  %27 = extractvalue { ptr, i32 } %26, 0
  store ptr %27, ptr %13, align 8
  %28 = extractvalue { ptr, i32 } %26, 1
  store i32 %28, ptr %14, align 4
  call void @_ZN2cv16ParallelLoopBodyD2Ev(ptr noundef nonnull align 8 dereferenceable(32) %12) #3
  call void @llvm.lifetime.end.p0(i64 32, ptr %12) #3
  call void @llvm.lifetime.end.p0(i64 8, ptr %11) #3
  br label %29

29:                                               ; preds = %25
  %30 = load ptr, ptr %13, align 8
  %31 = load i32, ptr %14, align 4
  %32 = insertvalue { ptr, i32 } poison, ptr %30, 0
  %33 = insertvalue { ptr, i32 } %32, i32 %31, 1
  resume { ptr, i32 } %33
}