; Function Attrs: mustprogress uwtable
define hidden void @_ZN2cv11bioinspired17BasicRetinaFilter31_verticalCausalFilter_IrregularEPfjjPKf(ptr noundef nonnull readonly align 8 captures(none) dereferenceable(168) %0, ptr noundef %1, i32 noundef %2, i32 noundef %3, ptr noundef %4) local_unnamed_addr #3 align 2 personality ptr @__gxx_personality_v0 {
  %6 = alloca %"class.cv::Range", align 4
  %7 = alloca %"class.cv::bioinspired::BasicRetinaFilter::Parallel_verticalCausalFilter_Irregular", align 8
  call void @llvm.lifetime.start.p0(i64 8, ptr nonnull %6) #19
  store i32 %2, ptr %6, align 4, !tbaa !71
  %8 = getelementptr inbounds nuw i8, ptr %6, i64 4
  store i32 %3, ptr %8, align 4, !tbaa !73
  call void @llvm.lifetime.start.p0(i64 32, ptr nonnull %7) #19
  %9 = getelementptr inbounds nuw i8, ptr %0, i64 24
  %10 = load i64, ptr %9, align 8, !tbaa !15
  %11 = trunc i64 %10 to i32
  %12 = getelementptr inbounds nuw i8, ptr %0, i64 32
  %13 = load i64, ptr %12, align 8, !tbaa !17
  %14 = trunc i64 %13 to i32
  store ptr getelementptr inbounds nuw inrange(-16, 24) (i8, ptr @_ZTVN2cv11bioinspired17BasicRetinaFilter39Parallel_verticalCausalFilter_IrregularE, i64 16), ptr %7, align 8, !tbaa !13
  %15 = getelementptr inbounds nuw i8, ptr %7, i64 8
  store ptr %1, ptr %15, align 8, !tbaa !134
  %16 = getelementptr inbounds nuw i8, ptr %7, i64 16
  store ptr %4, ptr %16, align 8, !tbaa !136
  %17 = getelementptr inbounds nuw i8, ptr %7, i64 24
  store i32 %11, ptr %17, align 8, !tbaa !137
  %18 = getelementptr inbounds nuw i8, ptr %7, i64 28
  store i32 %14, ptr %18, align 4, !tbaa !138
  invoke void @_ZN2cv13parallel_for_ERKNS_5RangeERKNS_16ParallelLoopBodyEd(ptr noundef nonnull align 4 dereferenceable(8) %6, ptr noundef nonnull align 8 dereferenceable(8) %7, double noundef -1.000000e+00)
          to label %19 unwind label %20

19:                                               ; preds = %5
  call void @_ZN2cv16ParallelLoopBodyD2Ev(ptr noundef nonnull align 8 dereferenceable(32) %7) #19
  call void @llvm.lifetime.end.p0(i64 32, ptr nonnull %7) #19
  call void @llvm.lifetime.end.p0(i64 8, ptr nonnull %6) #19
  ret void

20:                                               ; preds = %5
  %21 = landingpad { ptr, i32 }
          cleanup
  call void @_ZN2cv16ParallelLoopBodyD2Ev(ptr noundef nonnull align 8 dereferenceable(32) %7) #19
  call void @llvm.lifetime.end.p0(i64 32, ptr nonnull %7) #19
  call void @llvm.lifetime.end.p0(i64 8, ptr nonnull %6) #19
  resume { ptr, i32 } %21
}